; Function Attrs: mustprogress uwtable
define internal void @_ZN12_GLOBAL__N_116SmtrPrintVisitor9not_equalEN5Yosys10Functional4NodeES3_S3_(ptr dead_on_unwind noalias writable sret(%"class.Yosys::SExpr") align 8 %0, ptr noundef nonnull align 8 dereferenceable(56) %1, ptr readnone captures(none) %2, i32 %3, ptr %4, i32 %5, ptr noundef readonly byval(%"class.Yosys::Functional::Node") align 8 captures(none) %6) unnamed_addr #5 align 2 personality ptr @__gxx_personality_v0 {
  %8 = alloca %"class.Yosys::Functional::Node", align 8
  %9 = alloca %"class.Yosys::Functional::Node", align 8
  %10 = alloca %"class.Yosys::SExpr", align 8
  %11 = alloca %"class.Yosys::SExpr", align 8
  %12 = alloca %"class.Yosys::SExpr", align 8
  %13 = alloca %"class.Yosys::SExpr", align 8
  call void @llvm.lifetime.start.p0(i64 40, ptr nonnull %10) #26
  call void @llvm.lifetime.start.p0(i64 40, ptr nonnull %11) #26
  call void @llvm.lifetime.start.p0(i64 40, ptr nonnull %12) #26
  %14 = getelementptr inbounds nuw i8, ptr %1, i64 8
  call void @llvm.lifetime.start.p0(i64 16, ptr nonnull %9)
  store ptr %4, ptr %9, align 8, !noalias !620
  %15 = getelementptr inbounds nuw i8, ptr %9, i64 8
  store i32 %5, ptr %15, align 8, !noalias !620
  %16 = getelementptr inbounds nuw i8, ptr %1, i64 24
  %17 = load ptr, ptr %16, align 8, !tbaa !157, !noalias !620
  %.not.i.i = icmp eq ptr %17, null
  br i1 %.not.i.i, label %18, label %_ZNKSt8functionIFN5Yosys5SExprENS0_10Functional4NodeEEEclES3_.exit

18:                                               ; preds = %7
  tail call void @_ZSt25__throw_bad_function_callv() #28, !noalias !620
  unreachable

_ZNKSt8functionIFN5Yosys5SExprENS0_10Functional4NodeEEEclES3_.exit: ; preds = %7
  %19 = getelementptr inbounds nuw i8, ptr %1, i64 32
  %20 = load ptr, ptr %19, align 8, !tbaa !159, !noalias !620
  call void %20(ptr dead_on_unwind nonnull writable sret(%"class.Yosys::SExpr") align 8 %12, ptr noundef nonnull align 8 dereferenceable(32) %14, ptr noundef nonnull align 8 dereferenceable(16) %9)
  call void @llvm.lifetime.end.p0(i64 16, ptr nonnull %9)
  call void @llvm.lifetime.start.p0(i64 40, ptr nonnull %13) #26
  %.sroa.0.0.copyload = load ptr, ptr %6, align 8, !tbaa !544
  %.sroa.2.0..sroa_idx = getelementptr inbounds nuw i8, ptr %6, i64 8
  %.sroa.2.0.copyload = load i32, ptr %.sroa.2.0..sroa_idx, align 8, !tbaa !46
  call void @llvm.lifetime.start.p0(i64 16, ptr nonnull %8)
  store ptr %.sroa.0.0.copyload, ptr %8, align 8, !noalias !623
  %21 = getelementptr inbounds nuw i8, ptr %8, i64 8
  store i32 %.sroa.2.0.copyload, ptr %21, align 8, !noalias !623
  %22 = load ptr, ptr %16, align 8, !tbaa !157, !noalias !623
  %.not.i.i14 = icmp eq ptr %22, null
  br i1 %.not.i.i14, label %23, label %24

23:                                               ; preds = %_ZNKSt8functionIFN5Yosys5SExprENS0_10Functional4NodeEEEclES3_.exit
  invoke void @_ZSt25__throw_bad_function_callv() #28
          to label %.noexc unwind label %73

.noexc:                                           ; preds = %23
  unreachable

24:                                               ; preds = %_ZNKSt8functionIFN5Yosys5SExprENS0_10Functional4NodeEEEclES3_.exit
  %25 = load ptr, ptr %19, align 8, !tbaa !159, !noalias !623
  invoke void %25(ptr dead_on_unwind nonnull writable sret(%"class.Yosys::SExpr") align 8 %13, ptr noundef nonnull align 8 dereferenceable(32) %14, ptr noundef nonnull align 8 dereferenceable(16) %8)
          to label %26 unwind label %73

26:                                               ; preds = %24
  call void @llvm.lifetime.end.p0(i64 16, ptr nonnull %8)
  invoke void @_ZN5Yosys9SExprUtil4listIJRA5_KcNS_5SExprES5_EEES5_DpOT_(ptr dead_on_unwind nonnull writable sret(%"class.Yosys::SExpr") align 8 %11, ptr noundef nonnull align 1 dereferenceable(5) @.str.126, ptr noundef nonnull align 8 dereferenceable(40) %12, ptr noundef nonnull align 8 dereferenceable(40) %13)
          to label %27 unwind label %75

27:                                               ; preds = %26
  invoke void @_ZN5Yosys9SExprUtil4listIJRA4_KcNS_5SExprEEEES5_DpOT_(ptr dead_on_unwind nonnull writable sret(%"class.Yosys::SExpr") align 8 %10, ptr noundef nonnull align 1 dereferenceable(4) @.str.128, ptr noundef nonnull align 8 dereferenceable(40) %11)
          to label %28 unwind label %77

28:                                               ; preds = %27
  invoke void @_ZN5Yosys9SExprUtil4listIJRA16_KcNS_5SExprEEEES5_DpOT_(ptr dead_on_unwind writable sret(%"class.Yosys::SExpr") align 8 %0, ptr noundef nonnull align 1 dereferenceable(16) @.str.127, ptr noundef nonnull align 8 dereferenceable(40) %10)
          to label %_ZN12_GLOBAL__N_116SmtrPrintVisitor9from_boolEON5Yosys5SExprE.exit unwind label %79

_ZN12_GLOBAL__N_116SmtrPrintVisitor9from_boolEON5Yosys5SExprE.exit: ; preds = %28
  %29 = getelementptr inbounds nuw i8, ptr %10, i64 32
  %30 = load i8, ptr %29, align 8, !tbaa !117
  %switch.i.i.i = icmp eq i8 %30, 0
  br i1 %switch.i.i.i, label %.noexc1.i.i, label %31

.noexc1.i.i:                                      ; preds = %_ZN12_GLOBAL__N_116SmtrPrintVisitor9from_boolEON5Yosys5SExprE.exit
  call void @_ZNSt6vectorIN5Yosys5SExprESaIS1_EED2Ev(ptr noundef nonnull align 8 dereferenceable(40) %10) #26
  br label %_ZN5Yosys5SExprD2Ev.exit

31:                                               ; preds = %_ZN12_GLOBAL__N_116SmtrPrintVisitor9from_boolEON5Yosys5SExprE.exit
  %32 = load ptr, ptr %10, align 8, !tbaa !17
  %33 = getelementptr inbounds nuw i8, ptr %10, i64 16
  %34 = icmp eq ptr %32, %33
  br i1 %34, label %_ZNKSt7__cxx1112basic_stringIcSt11char_traitsIcESaIcEE11_M_is_localEv.exit.thread.i.i.i.i.i.i.i.i.i.i, label %_ZNKSt7__cxx1112basic_stringIcSt11char_traitsIcESaIcEE11_M_is_localEv.exit.i.i.i.i.i.i.i.i.i.i

_ZNKSt7__cxx1112basic_stringIcSt11char_traitsIcESaIcEE11_M_is_localEv.exit.thread.i.i.i.i.i.i.i.i.i.i: ; preds = %31
  %35 = getelementptr inbounds nuw i8, ptr %10, i64 8
  %36 = load i64, ptr %35, align 8, !tbaa !22
  %37 = icmp ult i64 %36, 16
  call void @llvm.assume(i1 %37)
  br label %_ZN5Yosys5SExprD2Ev.exit

_ZNKSt7__cxx1112basic_stringIcSt11char_traitsIcESaIcEE11_M_is_localEv.exit.i.i.i.i.i.i.i.i.i.i: ; preds = %31
  %38 = load i64, ptr %33, align 8, !tbaa !23
  %39 = add i64 %38, 1
  call void @_ZdlPvm(ptr noundef %32, i64 noundef %39) #27
  br label %_ZN5Yosys5SExprD2Ev.exit

_ZN5Yosys5SExprD2Ev.exit:                         ; preds = %.noexc1.i.i, %_ZNKSt7__cxx1112basic_stringIcSt11char_traitsIcESaIcEE11_M_is_localEv.exit.thread.i.i.i.i.i.i.i.i.i.i, %_ZNKSt7__cxx1112basic_stringIcSt11char_traitsIcESaIcEE11_M_is_localEv.exit.i.i.i.i.i.i.i.i.i.i
  store i8 -1, ptr %29, align 8, !tbaa !117
  %40 = getelementptr inbounds nuw i8, ptr %11, i64 32
  %41 = load i8, ptr %40, align 8, !tbaa !117
  %switch.i.i.i18 = icmp eq i8 %41, 0
  br i1 %switch.i.i.i18, label %.noexc1.i.i21, label %42

.noexc1.i.i21:                                    ; preds = %_ZN5Yosys5SExprD2Ev.exit
  call void @_ZNSt6vectorIN5Yosys5SExprESaIS1_EED2Ev(ptr noundef nonnull align 8 dereferenceable(40) %11) #26
  br label %_ZN5Yosys5SExprD2Ev.exit22

42:                                               ; preds = %_ZN5Yosys5SExprD2Ev.exit
  %43 = load ptr, ptr %11, align 8, !tbaa !17
  %44 = getelementptr inbounds nuw i8, ptr %11, i64 16
  %45 = icmp eq ptr %43, %44
  br i1 %45, label %_ZNKSt7__cxx1112basic_stringIcSt11char_traitsIcESaIcEE11_M_is_localEv.exit.thread.i.i.i.i.i.i.i.i.i.i20, label %_ZNKSt7__cxx1112basic_stringIcSt11char_traitsIcESaIcEE11_M_is_localEv.exit.i.i.i.i.i.i.i.i.i.i19

_ZNKSt7__cxx1112basic_stringIcSt11char_traitsIcESaIcEE11_M_is_localEv.exit.thread.i.i.i.i.i.i.i.i.i.i20: ; preds = %42
  %46 = getelementptr inbounds nuw i8, ptr %11, i64 8
  %47 = load i64, ptr %46, align 8, !tbaa !22
  %48 = icmp ult i64 %47, 16
  call void @llvm.assume(i1 %48)
  br label %_ZN5Yosys5SExprD2Ev.exit22

_ZNKSt7__cxx1112basic_stringIcSt11char_traitsIcESaIcEE11_M_is_localEv.exit.i.i.i.i.i.i.i.i.i.i19: ; preds = %42
  %49 = load i64, ptr %44, align 8, !tbaa !23
  %50 = add i64 %49, 1
  call void @_ZdlPvm(ptr noundef %43, i64 noundef %50) #27
  br label %_ZN5Yosys5SExprD2Ev.exit22

_ZN5Yosys5SExprD2Ev.exit22:                       ; preds = %.noexc1.i.i21, %_ZNKSt7__cxx1112basic_stringIcSt11char_traitsIcESaIcEE11_M_is_localEv.exit.thread.i.i.i.i.i.i.i.i.i.i20, %_ZNKSt7__cxx1112basic_stringIcSt11char_traitsIcESaIcEE11_M_is_localEv.exit.i.i.i.i.i.i.i.i.i.i19
  store i8 -1, ptr %40, align 8, !tbaa !117
  %51 = getelementptr inbounds nuw i8, ptr %13, i64 32
  %52 = load i8, ptr %51, align 8, !tbaa !117
  %switch.i.i.i23 = icmp eq i8 %52, 0
  br i1 %switch.i.i.i23, label %.noexc1.i.i26, label %53

.noexc1.i.i26:                                    ; preds = %_ZN5Yosys5SExprD2Ev.exit22
  call void @_ZNSt6vectorIN5Yosys5SExprESaIS1_EED2Ev(ptr noundef nonnull align 8 dereferenceable(40) %13) #26
  br label %_ZN5Yosys5SExprD2Ev.exit27

53:                                               ; preds = %_ZN5Yosys5SExprD2Ev.exit22
  %54 = load ptr, ptr %13, align 8, !tbaa !17
  %55 = getelementptr inbounds nuw i8, ptr %13, i64 16
  %56 = icmp eq ptr %54, %55
  br i1 %56, label %_ZNKSt7__cxx1112basic_stringIcSt11char_traitsIcESaIcEE11_M_is_localEv.exit.thread.i.i.i.i.i.i.i.i.i.i25, label %_ZNKSt7__cxx1112basic_stringIcSt11char_traitsIcESaIcEE11_M_is_localEv.exit.i.i.i.i.i.i.i.i.i.i24

_ZNKSt7__cxx1112basic_stringIcSt11char_traitsIcESaIcEE11_M_is_localEv.exit.thread.i.i.i.i.i.i.i.i.i.i25: ; preds = %53
  %57 = getelementptr inbounds nuw i8, ptr %13, i64 8
  %58 = load i64, ptr %57, align 8, !tbaa !22
  %59 = icmp ult i64 %58, 16
  call void @llvm.assume(i1 %59)
  br label %_ZN5Yosys5SExprD2Ev.exit27

_ZNKSt7__cxx1112basic_stringIcSt11char_traitsIcESaIcEE11_M_is_localEv.exit.i.i.i.i.i.i.i.i.i.i24: ; preds = %53
  %60 = load i64, ptr %55, align 8, !tbaa !23
  %61 = add i64 %60, 1
  call void @_ZdlPvm(ptr noundef %54, i64 noundef %61) #27
  br label %_ZN5Yosys5SExprD2Ev.exit27

_ZN5Yosys5SExprD2Ev.exit27:                       ; preds = %.noexc1.i.i26, %_ZNKSt7__cxx1112basic_stringIcSt11char_traitsIcESaIcEE11_M_is_localEv.exit.thread.i.i.i.i.i.i.i.i.i.i25, %_ZNKSt7__cxx1112basic_stringIcSt11char_traitsIcESaIcEE11_M_is_localEv.exit.i.i.i.i.i.i.i.i.i.i24
  call void @llvm.lifetime.end.p0(i64 40, ptr nonnull %13) #26
  %62 = getelementptr inbounds nuw i8, ptr %12, i64 32
  %63 = load i8, ptr %62, align 8, !tbaa !117
  %switch.i.i.i28 = icmp eq i8 %63, 0
  br i1 %switch.i.i.i28, label %.noexc1.i.i31, label %64

.noexc1.i.i31:                                    ; preds = %_ZN5Yosys5SExprD2Ev.exit27
  call void @_ZNSt6vectorIN5Yosys5SExprESaIS1_EED2Ev(ptr noundef nonnull align 8 dereferenceable(40) %12) #26
  br label %_ZN5Yosys5SExprD2Ev.exit32

64:                                               ; preds = %_ZN5Yosys5SExprD2Ev.exit27
  %65 = load ptr, ptr %12, align 8, !tbaa !17
  %66 = getelementptr inbounds nuw i8, ptr %12, i64 16
  %67 = icmp eq ptr %65, %66
  br i1 %67, label %_ZNKSt7__cxx1112basic_stringIcSt11char_traitsIcESaIcEE11_M_is_localEv.exit.thread.i.i.i.i.i.i.i.i.i.i30, label %_ZNKSt7__cxx1112basic_stringIcSt11char_traitsIcESaIcEE11_M_is_localEv.exit.i.i.i.i.i.i.i.i.i.i29

_ZNKSt7__cxx1112basic_stringIcSt11char_traitsIcESaIcEE11_M_is_localEv.exit.thread.i.i.i.i.i.i.i.i.i.i30: ; preds = %64
  %68 = getelementptr inbounds nuw i8, ptr %12, i64 8
  %69 = load i64, ptr %68, align 8, !tbaa !22
  %70 = icmp ult i64 %69, 16
  call void @llvm.assume(i1 %70)
  br label %_ZN5Yosys5SExprD2Ev.exit32

_ZNKSt7__cxx1112basic_stringIcSt11char_traitsIcESaIcEE11_M_is_localEv.exit.i.i.i.i.i.i.i.i.i.i29: ; preds = %64
  %71 = load i64, ptr %66, align 8, !tbaa !23
  %72 = add i64 %71, 1
  call void @_ZdlPvm(ptr noundef %65, i64 noundef %72) #27
  br label %_ZN5Yosys5SExprD2Ev.exit32

_ZN5Yosys5SExprD2Ev.exit32:                       ; preds = %.noexc1.i.i31, %_ZNKSt7__cxx1112basic_stringIcSt11char_traitsIcESaIcEE11_M_is_localEv.exit.thread.i.i.i.i.i.i.i.i.i.i30, %_ZNKSt7__cxx1112basic_stringIcSt11char_traitsIcESaIcEE11_M_is_localEv.exit.i.i.i.i.i.i.i.i.i.i29
  call void @llvm.lifetime.end.p0(i64 40, ptr nonnull %12) #26
  call void @llvm.lifetime.end.p0(i64 40, ptr nonnull %11) #26
  call void @llvm.lifetime.end.p0(i64 40, ptr nonnull %10) #26
  ret void

73:                                               ; preds = %24, %23
  %74 = landingpad { ptr, i32 }
          cleanup
  br label %83

75:                                               ; preds = %26
  %76 = landingpad { ptr, i32 }
          cleanup
  br label %82

77:                                               ; preds = %27
  %78 = landingpad { ptr, i32 }
          cleanup
  br label %81

79:                                               ; preds = %28
  %80 = landingpad { ptr, i32 }
          cleanup
  call void @_ZN5Yosys5SExprD2Ev(ptr noundef nonnull align 8 dereferenceable(40) %10) #26
  br label %81

81:                                               ; preds = %79, %77
  %.pn = phi { ptr, i32 } [ %80, %79 ], [ %78, %77 ]
  call void @_ZN5Yosys5SExprD2Ev(ptr noundef nonnull align 8 dereferenceable(40) %11) #26
  br label %82

82:                                               ; preds = %81, %75
  %.pn.pn = phi { ptr, i32 } [ %.pn, %81 ], [ %76, %75 ]
  call void @_ZN5Yosys5SExprD2Ev(ptr noundef nonnull align 8 dereferenceable(40) %13) #26
  br label %83

83:                                               ; preds = %82, %73
  %.pn.pn.pn = phi { ptr, i32 } [ %.pn.pn, %82 ], [ %74, %73 ]
  call void @llvm.lifetime.end.p0(i64 40, ptr nonnull %13) #26
  call void @_ZN5Yosys5SExprD2Ev(ptr noundef nonnull align 8 dereferenceable(40) %12) #26
  call void @llvm.lifetime.end.p0(i64 40, ptr nonnull %12) #26
  call void @llvm.lifetime.end.p0(i64 40, ptr nonnull %11) #26
  call void @llvm.lifetime.end.p0(i64 40, ptr nonnull %10) #26
  resume { ptr, i32 } %.pn.pn.pn
}